target datalayout = "e-m:e-p270:32:32-p271:32:32-p272:64:64-i64:64-i128:128-f80:128-n8:16:32:64-S128"
target triple = "x86_64-pc-linux-gnu"

%struct.MvcCoverStruct = type { i32, i32, i32, %struct.MvcListStruct, ptr, i32, ptr, ptr, ptr }
%struct.MvcListStruct = type { ptr, ptr, i32 }
%struct.MvcCubeStruct = type { ptr, i32, i32, [1 x i32] }

; Function Attrs: nounwind uwtable
define i32 @Mvc_CoverBestLiteral(ptr noundef %0, ptr noundef %1) #0 {
  %3 = alloca i32, align 4
  %4 = alloca ptr, align 8
  %5 = alloca ptr, align 8
  %6 = alloca ptr, align 8
  %7 = alloca i32, align 4
  %8 = alloca i32, align 4
  %9 = alloca i32, align 4
  %10 = alloca i32, align 4
  %11 = alloca i32, align 4
  %12 = alloca i32, align 4
  %13 = alloca i32, align 4
  store ptr %0, ptr %4, align 8
  store ptr %1, ptr %5, align 8
  store i32 1, ptr %13, align 4
  store i32 -1, ptr %10, align 4
  store i32 -1, ptr %11, align 4
  store i32 0, ptr %9, align 4
  br label %14

14:                                               ; preds = %88, %2
  %15 = load i32, ptr %9, align 4
  %16 = load ptr, ptr %4, align 8
  %17 = getelementptr inbounds %struct.MvcCoverStruct, ptr %16, i32 0, i32 2
  %18 = load i32, ptr %17, align 8
  %19 = icmp slt i32 %15, %18
  br i1 %19, label %20, label %91

20:                                               ; preds = %14
  %21 = load ptr, ptr %5, align 8
  %22 = icmp ne ptr %21, null
  br i1 %22, label %23, label %36

23:                                               ; preds = %20
  %24 = load ptr, ptr %5, align 8
  %25 = getelementptr inbounds %struct.MvcCubeStruct, ptr %24, i32 0, i32 3
  %26 = load i32, ptr %9, align 4
  %27 = ashr i32 %26, 5
  %28 = sext i32 %27 to i64
  %29 = getelementptr inbounds [1 x i32], ptr %25, i64 0, i64 %28
  %30 = load i32, ptr %29, align 4
  %31 = load i32, ptr %9, align 4
  %32 = and i32 %31, 31
  %33 = shl i32 1, %32
  %34 = and i32 %30, %33
  %35 = icmp ugt i32 %34, 0
  br i1 %35, label %36, label %87

36:                                               ; preds = %23, %20
  %37 = load i32, ptr %9, align 4
  %38 = ashr i32 %37, 5
  store i32 %38, ptr %7, align 4
  %39 = load i32, ptr %9, align 4
  %40 = and i32 %39, 31
  store i32 %40, ptr %8, align 4
  store i32 0, ptr %12, align 4
  %41 = load ptr, ptr %4, align 8
  %42 = getelementptr inbounds %struct.MvcCoverStruct, ptr %41, i32 0, i32 3
  %43 = getelementptr inbounds %struct.MvcListStruct, ptr %42, i32 0, i32 0
  %44 = load ptr, ptr %43, align 8
  store ptr %44, ptr %6, align 8
  br label %45

45:                                               ; preds = %63, %36
  %46 = load ptr, ptr %6, align 8
  %47 = icmp ne ptr %46, null
  br i1 %47, label %48, label %67

48:                                               ; preds = %45
  %49 = load ptr, ptr %6, align 8
  %50 = getelementptr inbounds %struct.MvcCubeStruct, ptr %49, i32 0, i32 3
  %51 = load i32, ptr %7, align 4
  %52 = sext i32 %51 to i64
  %53 = getelementptr inbounds [1 x i32], ptr %50, i64 0, i64 %52
  %54 = load i32, ptr %53, align 4
  %55 = load i32, ptr %8, align 4
  %56 = shl i32 1, %55
  %57 = and i32 %54, %56
  %58 = icmp ne i32 %57, 0
  br i1 %58, label %59, label %62

59:                                               ; preds = %48
  %60 = load i32, ptr %12, align 4
  %61 = add nsw i32 %60, 1
  store i32 %61, ptr %12, align 4
  br label %62

62:                                               ; preds = %59, %48
  br label %63

63:                                               ; preds = %62
  %64 = load ptr, ptr %6, align 8
  %65 = getelementptr inbounds %struct.MvcCubeStruct, ptr %64, i32 0, i32 0
  %66 = load ptr, ptr %65, align 8
  store ptr %66, ptr %6, align 8
  br label %45, !llvm.loop !9

67:                                               ; preds = %45
  %68 = load i32, ptr %13, align 4
  %69 = icmp ne i32 %68, 0
  br i1 %69, label %70, label %78

70:                                               ; preds = %67
  %71 = load i32, ptr %11, align 4
  %72 = load i32, ptr %12, align 4
  %73 = icmp slt i32 %71, %72
  br i1 %73, label %74, label %77

74:                                               ; preds = %70
  %75 = load i32, ptr %12, align 4
  store i32 %75, ptr %11, align 4
  %76 = load i32, ptr %9, align 4
  store i32 %76, ptr %10, align 4
  br label %77

77:                                               ; preds = %74, %70
  br label %86

78:                                               ; preds = %67
  %79 = load i32, ptr %11, align 4
  %80 = load i32, ptr %12, align 4
  %81 = icmp sle i32 %79, %80
  br i1 %81, label %82, label %85

82:                                               ; preds = %78
  %83 = load i32, ptr %12, align 4
  store i32 %83, ptr %11, align 4
  %84 = load i32, ptr %9, align 4
  store i32 %84, ptr %10, align 4
  br label %85

85:                                               ; preds = %82, %78
  br label %86

86:                                               ; preds = %85, %77
  br label %87

87:                                               ; preds = %86, %23
  br label %88

88:                                               ; preds = %87
  %89 = load i32, ptr %9, align 4
  %90 = add nsw i32 %89, 1
  store i32 %90, ptr %9, align 4
  br label %14, !llvm.loop !10

91:                                               ; preds = %14
  %92 = load i32, ptr %11, align 4
  %93 = icmp sgt i32 %92, 1
  br i1 %93, label %94, label %96

94:                                               ; preds = %91
  %95 = load i32, ptr %10, align 4
  store i32 %95, ptr %3, align 4
  br label %97

96:                                               ; preds = %91
  store i32 -1, ptr %3, align 4
  br label %97

97:                                               ; preds = %96, %94
  %98 = load i32, ptr %3, align 4
  ret i32 %98
}

; Function Attrs: nounwind uwtable
define ptr @Mvc_CoverBestLiteralCover(ptr noundef %0, ptr noundef %1) #0 {
  %3 = alloca ptr, align 8
  %4 = alloca ptr, align 8
  %5 = alloca ptr, align 8
  %6 = alloca ptr, align 8
  %7 = alloca ptr, align 8
  %8 = alloca i32, align 4
  %9 = alloca i32, align 4
  %10 = alloca ptr, align 8
  store ptr %0, ptr %3, align 8
  store ptr %1, ptr %4, align 8
  %11 = load ptr, ptr %3, align 8
  %12 = call ptr @Mvc_CoverClone(ptr noundef %11)
  store ptr %12, ptr %5, align 8
  %13 = load ptr, ptr %5, align 8
  %14 = call ptr @Mvc_CubeAlloc(ptr noundef %13)
  store ptr %14, ptr %6, align 8
  %15 = load ptr, ptr %6, align 8
  %16 = getelementptr inbounds %struct.MvcCubeStruct, ptr %15, i32 0, i32 1
  %17 = load i32, ptr %16, align 8
  %18 = and i32 %17, 16777215
  %19 = icmp eq i32 %18, 0
  br i1 %19, label %20, label %24

20:                                               ; preds = %2
  %21 = load ptr, ptr %6, align 8
  %22 = getelementptr inbounds %struct.MvcCubeStruct, ptr %21, i32 0, i32 3
  %23 = getelementptr inbounds [1 x i32], ptr %22, i64 0, i64 0
  store i32 0, ptr %23, align 8
  br label %56

24:                                               ; preds = %2
  %25 = load ptr, ptr %6, align 8
  %26 = getelementptr inbounds %struct.MvcCubeStruct, ptr %25, i32 0, i32 1
  %27 = load i32, ptr %26, align 8
  %28 = and i32 %27, 16777215
  %29 = icmp eq i32 %28, 1
  br i1 %29, label %30, label %37

30:                                               ; preds = %24
  %31 = load ptr, ptr %6, align 8
  %32 = getelementptr inbounds %struct.MvcCubeStruct, ptr %31, i32 0, i32 3
  %33 = getelementptr inbounds [1 x i32], ptr %32, i64 0, i64 0
  store i32 0, ptr %33, align 8
  %34 = load ptr, ptr %6, align 8
  %35 = getelementptr inbounds %struct.MvcCubeStruct, ptr %34, i32 0, i32 3
  %36 = getelementptr inbounds [1 x i32], ptr %35, i64 0, i64 1
  store i32 0, ptr %36, align 4
  br label %55

37:                                               ; preds = %24
  %38 = load ptr, ptr %6, align 8
  %39 = getelementptr inbounds %struct.MvcCubeStruct, ptr %38, i32 0, i32 1
  %40 = load i32, ptr %39, align 8
  %41 = and i32 %40, 16777215
  store i32 %41, ptr %9, align 4
  br label %42

42:                                               ; preds = %51, %37
  %43 = load i32, ptr %9, align 4
  %44 = icmp sge i32 %43, 0
  br i1 %44, label %45, label %54

45:                                               ; preds = %42
  %46 = load ptr, ptr %6, align 8
  %47 = getelementptr inbounds %struct.MvcCubeStruct, ptr %46, i32 0, i32 3
  %48 = load i32, ptr %9, align 4
  %49 = sext i32 %48 to i64
  %50 = getelementptr inbounds [1 x i32], ptr %47, i64 0, i64 %49
  store i32 0, ptr %50, align 4
  br label %51

51:                                               ; preds = %45
  %52 = load i32, ptr %9, align 4
  %53 = add nsw i32 %52, -1
  store i32 %53, ptr %9, align 4
  br label %42, !llvm.loop !13

54:                                               ; preds = %42
  br label %55

55:                                               ; preds = %54, %30
  br label %56

56:                                               ; preds = %55, %20
  %57 = load ptr, ptr %4, align 8
  %58 = call ptr @Mvc_CoverReadCubeHead(ptr noundef %57)
  store ptr %58, ptr %7, align 8
  %59 = load ptr, ptr %3, align 8
  %60 = load ptr, ptr %7, align 8
  %61 = call i32 @Mvc_CoverBestLiteral(ptr noundef %59, ptr noundef %60)
  store i32 %61, ptr %8, align 4
  %62 = load i32, ptr %8, align 4
  %63 = and i32 %62, 31
  %64 = shl i32 1, %63
  %65 = load ptr, ptr %6, align 8
  %66 = getelementptr inbounds %struct.MvcCubeStruct, ptr %65, i32 0, i32 3
  %67 = load i32, ptr %8, align 4
  %68 = ashr i32 %67, 5
  %69 = sext i32 %68 to i64
  %70 = getelementptr inbounds [1 x i32], ptr %66, i64 0, i64 %69
  %71 = load i32, ptr %70, align 4
  %72 = or i32 %71, %64
  store i32 %72, ptr %70, align 4
  %73 = load ptr, ptr %5, align 8
  %74 = getelementptr inbounds %struct.MvcCoverStruct, ptr %73, i32 0, i32 3
  store ptr %74, ptr %10, align 8
  %75 = load ptr, ptr %10, align 8
  %76 = getelementptr inbounds %struct.MvcListStruct, ptr %75, i32 0, i32 0
  %77 = load ptr, ptr %76, align 8
  %78 = icmp eq ptr %77, null
  br i1 %78, label %79, label %83

79:                                               ; preds = %56
  %80 = load ptr, ptr %6, align 8
  %81 = load ptr, ptr %10, align 8
  %82 = getelementptr inbounds %struct.MvcListStruct, ptr %81, i32 0, i32 0
  store ptr %80, ptr %82, align 8
  br label %89

83:                                               ; preds = %56
  %84 = load ptr, ptr %6, align 8
  %85 = load ptr, ptr %10, align 8
  %86 = getelementptr inbounds %struct.MvcListStruct, ptr %85, i32 0, i32 1
  %87 = load ptr, ptr %86, align 8
  %88 = getelementptr inbounds %struct.MvcCubeStruct, ptr %87, i32 0, i32 0
  store ptr %84, ptr %88, align 8
  br label %89

89:                                               ; preds = %83, %79
  %90 = load ptr, ptr %6, align 8
  %91 = load ptr, ptr %10, align 8
  %92 = getelementptr inbounds %struct.MvcListStruct, ptr %91, i32 0, i32 1
  store ptr %90, ptr %92, align 8
  %93 = load ptr, ptr %6, align 8
  %94 = getelementptr inbounds %struct.MvcCubeStruct, ptr %93, i32 0, i32 0
  store ptr null, ptr %94, align 8
  %95 = load ptr, ptr %10, align 8
  %96 = getelementptr inbounds %struct.MvcListStruct, ptr %95, i32 0, i32 2
  %97 = load i32, ptr %96, align 8
  %98 = add nsw i32 %97, 1
  store i32 %98, ptr %96, align 8
  %99 = load ptr, ptr %5, align 8
  ret ptr %99
}