; Function Attrs: nounwind uwtable
define noundef ptr @Mvc_CoverBestLiteralCover(ptr noundef %0, ptr noundef %1) local_unnamed_addr #1 {
  %3 = tail call ptr @Mvc_CoverClone(ptr noundef %0) #5
  %4 = tail call ptr @Mvc_CubeAlloc(ptr noundef %3) #5
  %5 = getelementptr inbounds nuw i8, ptr %4, i64 8
  %6 = load i32, ptr %5, align 8
  %7 = and i32 %6, 16777215
  %8 = getelementptr inbounds nuw i8, ptr %4, i64 16
  switch i32 %7, label %.preheader [
    i32 0, label %12
    i32 1, label %13
  ]

.preheader:                                       ; preds = %2
  %9 = shl i32 %6, 2
  %10 = and i32 %9, 67108860
  %narrow = add nuw nsw i32 %10, 4
  %11 = zext nneg i32 %narrow to i64
  tail call void @llvm.memset.p0.i64(ptr noundef nonnull align 4 dereferenceable(1) %8, i8 0, i64 %11, i1 false)
  br label %.loopexit

12:                                               ; preds = %2
  store i32 0, ptr %8, align 8
  br label %.loopexit

13:                                               ; preds = %2
  store i32 0, ptr %8, align 8
  %14 = getelementptr inbounds nuw i8, ptr %4, i64 20
  store i32 0, ptr %14, align 4
  br label %.loopexit

.loopexit:                                        ; preds = %.preheader, %13, %12
  %15 = tail call ptr @Mvc_CoverReadCubeHead(ptr noundef %1) #5
  %16 = getelementptr inbounds nuw i8, ptr %0, i64 8
  %17 = load i32, ptr %16, align 8
  %18 = icmp sgt i32 %17, 0
  br i1 %18, label %.lr.ph48.i, label %Mvc_CoverBestLiteral.exit

.lr.ph48.i:                                       ; preds = %.loopexit
  %.not.i = icmp eq ptr %15, null
  %19 = getelementptr inbounds nuw i8, ptr %15, i64 16
  %20 = getelementptr inbounds nuw i8, ptr %0, i64 16
  br i1 %.not.i, label %.lr.ph48.split.us.i, label %.lr.ph48.split.i

.lr.ph48.split.us.i:                              ; preds = %.lr.ph48.i
  %.03340.us.i = load ptr, ptr %20, align 8
  %.not3641.us.i = icmp eq ptr %.03340.us.i, null
  br i1 %.not3641.us.i, label %Mvc_CoverBestLiteral.exit, label %.lr.ph.us.i

.lr.ph.us.i:                                      ; preds = %.lr.ph48.split.us.i, %._crit_edge.us.i
  %.02846.us.i = phi i32 [ %spec.select39.us.i, %._crit_edge.us.i ], [ -1, %.lr.ph48.split.us.i ]
  %.03045.us.i = phi i32 [ %spec.select38.us.i, %._crit_edge.us.i ], [ -1, %.lr.ph48.split.us.i ]
  %.03244.us.i = phi i32 [ %31, %._crit_edge.us.i ], [ 0, %.lr.ph48.split.us.i ]
  %21 = lshr i32 %.03244.us.i, 5
  %22 = and i32 %.03244.us.i, 31
  %23 = zext nneg i32 %21 to i64
  br label %24

24:                                               ; preds = %24, %.lr.ph.us.i
  %.03343.us.i = phi ptr [ %.03340.us.i, %.lr.ph.us.i ], [ %.033.us.i, %24 ]
  %.02742.us.i = phi i32 [ 0, %.lr.ph.us.i ], [ %spec.select.us.i, %24 ]
  %25 = getelementptr inbounds nuw i8, ptr %.03343.us.i, i64 16
  %26 = getelementptr inbounds nuw [1 x i32], ptr %25, i64 0, i64 %23
  %27 = load i32, ptr %26, align 4
  %28 = lshr i32 %27, %22
  %29 = and i32 %28, 1
  %spec.select.us.i = add nuw nsw i32 %29, %.02742.us.i
  %.033.us.i = load ptr, ptr %.03343.us.i, align 8
  %.not36.us.i = icmp eq ptr %.033.us.i, null
  br i1 %.not36.us.i, label %._crit_edge.us.i, label %24, !llvm.loop !7

._crit_edge.us.i:                                 ; preds = %24
  %30 = icmp slt i32 %.02846.us.i, %spec.select.us.i
  %spec.select38.us.i = select i1 %30, i32 %.03244.us.i, i32 %.03045.us.i
  %spec.select39.us.i = tail call i32 @llvm.smax.i32(i32 %.02846.us.i, i32 %spec.select.us.i)
  %31 = add nuw nsw i32 %.03244.us.i, 1
  %exitcond57.not.i = icmp eq i32 %31, %17
  br i1 %exitcond57.not.i, label %._crit_edge49.i, label %.lr.ph.us.i, !llvm.loop !8

.lr.ph48.split.i:                                 ; preds = %.lr.ph48.i, %46
  %.02846.i = phi i32 [ %.129.i, %46 ], [ -1, %.lr.ph48.i ]
  %.03045.i = phi i32 [ %.131.i, %46 ], [ -1, %.lr.ph48.i ]
  %.03244.i = phi i32 [ %47, %46 ], [ 0, %.lr.ph48.i ]
  %32 = lshr i32 %.03244.i, 5
  %33 = zext nneg i32 %32 to i64
  %34 = getelementptr inbounds nuw [1 x i32], ptr %19, i64 0, i64 %33
  %35 = load i32, ptr %34, align 4
  %36 = and i32 %.03244.i, 31
  %37 = shl nuw i32 1, %36
  %38 = and i32 %37, %35
  %.not35.i = icmp eq i32 %38, 0
  br i1 %.not35.i, label %46, label %39

39:                                               ; preds = %.lr.ph48.split.i
  %.03340.i = load ptr, ptr %20, align 8
  %.not3641.i = icmp eq ptr %.03340.i, null
  br i1 %.not3641.i, label %._crit_edge.i, label %.lr.ph.i

.lr.ph.i:                                         ; preds = %39, %.lr.ph.i
  %.03343.i = phi ptr [ %.033.i, %.lr.ph.i ], [ %.03340.i, %39 ]
  %.02742.i = phi i32 [ %spec.select.i, %.lr.ph.i ], [ 0, %39 ]
  %40 = getelementptr inbounds nuw i8, ptr %.03343.i, i64 16
  %41 = getelementptr inbounds nuw [1 x i32], ptr %40, i64 0, i64 %33
  %42 = load i32, ptr %41, align 4
  %43 = lshr i32 %42, %36
  %44 = and i32 %43, 1
  %spec.select.i = add nuw nsw i32 %44, %.02742.i
  %.033.i = load ptr, ptr %.03343.i, align 8
  %.not36.i = icmp eq ptr %.033.i, null
  br i1 %.not36.i, label %._crit_edge.i, label %.lr.ph.i, !llvm.loop !7

._crit_edge.i:                                    ; preds = %.lr.ph.i, %39
  %.027.lcssa.i = phi i32 [ 0, %39 ], [ %spec.select.i, %.lr.ph.i ]
  %45 = icmp slt i32 %.02846.i, %.027.lcssa.i
  %spec.select38.i = select i1 %45, i32 %.03244.i, i32 %.03045.i
  %spec.select39.i = tail call i32 @llvm.smax.i32(i32 %.02846.i, i32 %.027.lcssa.i)
  br label %46

46:                                               ; preds = %._crit_edge.i, %.lr.ph48.split.i
  %.131.i = phi i32 [ %.03045.i, %.lr.ph48.split.i ], [ %spec.select38.i, %._crit_edge.i ]
  %.129.i = phi i32 [ %.02846.i, %.lr.ph48.split.i ], [ %spec.select39.i, %._crit_edge.i ]
  %47 = add nuw nsw i32 %.03244.i, 1
  %exitcond.not.i = icmp eq i32 %47, %17
  br i1 %exitcond.not.i, label %._crit_edge49.i, label %.lr.ph48.split.i, !llvm.loop !8

._crit_edge49.i:                                  ; preds = %46, %._crit_edge.us.i
  %.030.lcssa.i = phi i32 [ %spec.select38.us.i, %._crit_edge.us.i ], [ %.131.i, %46 ]
  %.028.lcssa.i = phi i32 [ %spec.select39.us.i, %._crit_edge.us.i ], [ %.129.i, %46 ]
  %.028.lcssa.fr.i = freeze i32 %.028.lcssa.i
  %48 = icmp sgt i32 %.028.lcssa.fr.i, 1
  %spec.select63.i = select i1 %48, i32 %.030.lcssa.i, i32 -1
  br label %Mvc_CoverBestLiteral.exit

Mvc_CoverBestLiteral.exit:                        ; preds = %.lr.ph48.split.us.i, %.loopexit, %._crit_edge49.i
  %49 = phi i32 [ -1, %.loopexit ], [ %spec.select63.i, %._crit_edge49.i ], [ -1, %.lr.ph48.split.us.i ]
  %50 = and i32 %49, 31
  %51 = shl nuw i32 1, %50
  %52 = getelementptr inbounds nuw i8, ptr %4, i64 16
  %53 = ashr i32 %49, 5
  %54 = sext i32 %53 to i64
  %55 = getelementptr inbounds [1 x i32], ptr %52, i64 0, i64 %54
  %56 = load i32, ptr %55, align 4
  %57 = or i32 %51, %56
  store i32 %57, ptr %55, align 4
  %58 = getelementptr inbounds nuw i8, ptr %3, i64 16
  %59 = load ptr, ptr %58, align 8
  %60 = icmp eq ptr %59, null
  br i1 %60, label %61, label %62

61:                                               ; preds = %Mvc_CoverBestLiteral.exit
  store ptr %4, ptr %58, align 8
  br label %65

62:                                               ; preds = %Mvc_CoverBestLiteral.exit
  %63 = getelementptr inbounds nuw i8, ptr %3, i64 24
  %64 = load ptr, ptr %63, align 8
  store ptr %4, ptr %64, align 8
  br label %65

65:                                               ; preds = %62, %61
  %66 = getelementptr inbounds nuw i8, ptr %3, i64 24
  store ptr %4, ptr %66, align 8
  store ptr null, ptr %4, align 8
  %67 = getelementptr inbounds nuw i8, ptr %3, i64 32
  %68 = load i32, ptr %67, align 8
  %69 = add nsw i32 %68, 1
  store i32 %69, ptr %67, align 8
  ret ptr %3
}